target datalayout = "e-m:e-p270:32:32-p271:32:32-p272:64:64-i64:64-i128:128-f80:128-n8:16:32:64-S128"
target triple = "x86_64-pc-linux-gnu"

%struct.Dar_Lib_t_ = type { ptr, i32, i32, [222 x i32], [222 x ptr], ptr, i32, ptr, [222 x ptr], ptr, [222 x ptr], ptr, [222 x ptr], [222 x i32], [222 x ptr], ptr, i32, i32, i32, [222 x i32], [222 x ptr], ptr, i32, [222 x i32], [222 x ptr], ptr, i32, ptr, i32, ptr, ptr, ptr, ptr, ptr }
%struct.Dar_LibObj_t_ = type { i64 }

; Function Attrs: nounwind uwtable
define internal ptr @Dar_LibObj(ptr noundef %0, i32 noundef %1) #0 {
  %3 = alloca ptr, align 8
  %4 = alloca i32, align 4
  store ptr %0, ptr %3, align 8
  store i32 %1, ptr %4, align 4
  %5 = load ptr, ptr %3, align 8
  %6 = getelementptr inbounds %struct.Dar_Lib_t_, ptr %5, i32 0, i32 0
  %7 = load ptr, ptr %6, align 8
  %8 = load i32, ptr %4, align 4
  %9 = sext i32 %8 to i64
  %10 = getelementptr inbounds %struct.Dar_LibObj_t_, ptr %7, i64 %9
  ret ptr %10
}

; Function Attrs: nounwind uwtable
define void @Dar_LibAddNode(ptr noundef %0, i32 noundef %1, i32 noundef %2, i32 noundef %3, i32 noundef %4) #0 {
  %6 = alloca ptr, align 8
  %7 = alloca i32, align 4
  %8 = alloca i32, align 4
  %9 = alloca i32, align 4
  %10 = alloca i32, align 4
  %11 = alloca ptr, align 8
  %12 = alloca ptr, align 8
  %13 = alloca ptr, align 8
  store ptr %0, ptr %6, align 8
  store i32 %1, ptr %7, align 4
  store i32 %2, ptr %8, align 4
  store i32 %3, ptr %9, align 4
  store i32 %4, ptr %10, align 4
  %14 = load ptr, ptr %6, align 8
  %15 = load i32, ptr %7, align 4
  %16 = call ptr @Dar_LibObj(ptr noundef %14, i32 noundef %15)
  store ptr %16, ptr %11, align 8
  %17 = load ptr, ptr %6, align 8
  %18 = load i32, ptr %8, align 4
  %19 = call ptr @Dar_LibObj(ptr noundef %17, i32 noundef %18)
  store ptr %19, ptr %12, align 8
  %20 = load ptr, ptr %6, align 8
  %21 = getelementptr inbounds %struct.Dar_Lib_t_, ptr %20, i32 0, i32 0
  %22 = load ptr, ptr %21, align 8
  %23 = load ptr, ptr %6, align 8
  %24 = getelementptr inbounds %struct.Dar_Lib_t_, ptr %23, i32 0, i32 2
  %25 = load i32, ptr %24, align 4
  %26 = add nsw i32 %25, 1
  store i32 %26, ptr %24, align 4
  %27 = sext i32 %25 to i64
  %28 = getelementptr inbounds %struct.Dar_LibObj_t_, ptr %22, i64 %27
  store ptr %28, ptr %13, align 8
  %29 = load i32, ptr %7, align 4
  %30 = load ptr, ptr %13, align 8
  %31 = zext i32 %29 to i64
  %32 = load i64, ptr %30, align 4
  %33 = and i64 %31, 65535
  %34 = and i64 %32, -65536
  %35 = or i64 %34, %33
  store i64 %35, ptr %30, align 4
  %36 = load i32, ptr %8, align 4
  %37 = load ptr, ptr %13, align 8
  %38 = zext i32 %36 to i64
  %39 = load i64, ptr %37, align 4
  %40 = and i64 %38, 65535
  %41 = shl i64 %40, 16
  %42 = and i64 %39, -4294901761
  %43 = or i64 %42, %41
  store i64 %43, ptr %37, align 4
  %44 = load i32, ptr %9, align 4
  %45 = load ptr, ptr %13, align 8
  %46 = zext i32 %44 to i64
  %47 = load i64, ptr %45, align 4
  %48 = and i64 %46, 1
  %49 = shl i64 %48, 32
  %50 = and i64 %47, -4294967297
  %51 = or i64 %50, %49
  store i64 %51, ptr %45, align 4
  %52 = load i32, ptr %10, align 4
  %53 = load ptr, ptr %13, align 8
  %54 = zext i32 %52 to i64
  %55 = load i64, ptr %53, align 4
  %56 = and i64 %54, 1
  %57 = shl i64 %56, 33
  %58 = and i64 %55, -8589934593
  %59 = or i64 %58, %57
  store i64 %59, ptr %53, align 4
  %60 = load i32, ptr %9, align 4
  %61 = load ptr, ptr %11, align 8
  %62 = load i64, ptr %61, align 4
  %63 = lshr i64 %62, 34
  %64 = and i64 %63, 1
  %65 = trunc i64 %64 to i32
  %66 = xor i32 %60, %65
  %67 = load i32, ptr %10, align 4
  %68 = load ptr, ptr %12, align 8
  %69 = load i64, ptr %68, align 4
  %70 = lshr i64 %69, 34
  %71 = and i64 %70, 1
  %72 = trunc i64 %71 to i32
  %73 = xor i32 %67, %72
  %74 = and i32 %66, %73
  %75 = load ptr, ptr %13, align 8
  %76 = zext i32 %74 to i64
  %77 = load i64, ptr %75, align 4
  %78 = and i64 %76, 1
  %79 = shl i64 %78, 34
  %80 = and i64 %77, -17179869185
  %81 = or i64 %80, %79
  store i64 %81, ptr %75, align 4
  %82 = load i32, ptr %9, align 4
  %83 = icmp ne i32 %82, 0
  br i1 %83, label %84, label %90

84:                                               ; preds = %5
  %85 = load ptr, ptr %11, align 8
  %86 = load i64, ptr %85, align 4
  %87 = lshr i64 %86, 36
  %88 = trunc i64 %87 to i32
  %89 = xor i32 %88, -1
  br label %95

90:                                               ; preds = %5
  %91 = load ptr, ptr %11, align 8
  %92 = load i64, ptr %91, align 4
  %93 = lshr i64 %92, 36
  %94 = trunc i64 %93 to i32
  br label %95

95:                                               ; preds = %90, %84
  %96 = phi i32 [ %89, %84 ], [ %94, %90 ]
  %97 = and i32 65535, %96
  %98 = load i32, ptr %10, align 4
  %99 = icmp ne i32 %98, 0
  br i1 %99, label %100, label %106

100:                                              ; preds = %95
  %101 = load ptr, ptr %12, align 8
  %102 = load i64, ptr %101, align 4
  %103 = lshr i64 %102, 36
  %104 = trunc i64 %103 to i32
  %105 = xor i32 %104, -1
  br label %111

106:                                              ; preds = %95
  %107 = load ptr, ptr %12, align 8
  %108 = load i64, ptr %107, align 4
  %109 = lshr i64 %108, 36
  %110 = trunc i64 %109 to i32
  br label %111

111:                                              ; preds = %106, %100
  %112 = phi i32 [ %105, %100 ], [ %110, %106 ]
  %113 = and i32 %97, %112
  %114 = load ptr, ptr %13, align 8
  %115 = zext i32 %113 to i64
  %116 = load i64, ptr %114, align 4
  %117 = and i64 %115, 268435455
  %118 = shl i64 %117, 36
  %119 = and i64 %116, 68719476735
  %120 = or i64 %119, %118
  store i64 %120, ptr %114, align 4
  ret void
}