; Function Attrs: mustprogress nofree norecurse nosync nounwind willreturn memory(readwrite, inaccessiblemem: none) uwtable
define void @Dar_LibAddNode(ptr noundef captures(none) %0, i32 noundef %1, i32 noundef %2, i32 noundef %3, i32 noundef %4) local_unnamed_addr #8 {
  %.val = load ptr, ptr %0, align 8
  %6 = sext i32 %1 to i64
  %7 = getelementptr inbounds %struct.Dar_LibObj_t_, ptr %.val, i64 %6
  %8 = sext i32 %2 to i64
  %9 = getelementptr inbounds %struct.Dar_LibObj_t_, ptr %.val, i64 %8
  %10 = getelementptr inbounds nuw i8, ptr %0, i64 12
  %11 = load i32, ptr %10, align 4
  %12 = add nsw i32 %11, 1
  store i32 %12, ptr %10, align 4
  %13 = sext i32 %11 to i64
  %14 = getelementptr inbounds %struct.Dar_LibObj_t_, ptr %.val, i64 %13
  %15 = load i64, ptr %14, align 4
  %16 = and i64 %15, -17179869184
  %17 = shl i32 %2, 16
  %18 = and i32 %1, 65535
  %19 = and i32 %3, 1
  %20 = zext nneg i32 %19 to i64
  %21 = shl nuw nsw i64 %20, 32
  %22 = and i32 %4, 1
  %23 = zext nneg i32 %22 to i64
  %24 = shl nuw nsw i64 %23, 33
  %25 = or disjoint i32 %17, %18
  %26 = zext i32 %25 to i64
  %27 = or disjoint i64 %21, %26
  %28 = or disjoint i64 %27, %24
  %29 = or disjoint i64 %28, %16
  store i64 %29, ptr %14, align 4
  %30 = load i64, ptr %7, align 4
  %31 = lshr i64 %30, 34
  %32 = trunc nuw nsw i64 %31 to i32
  %33 = xor i32 %3, %32
  %34 = load i64, ptr %9, align 4
  %35 = lshr i64 %34, 34
  %36 = trunc nuw nsw i64 %35 to i32
  %37 = xor i32 %4, %36
  %38 = and i32 %33, 1
  %39 = and i32 %38, %37
  %40 = zext nneg i32 %39 to i64
  %41 = shl nuw nsw i64 %40, 34
  %42 = and i64 %29, -17179869185
  %43 = or disjoint i64 %41, %42
  store i64 %43, ptr %14, align 4
  %.not = icmp ne i32 %3, 0
  %44 = load i64, ptr %7, align 4
  %45 = sext i1 %.not to i64
  %46 = xor i64 %44, %45
  %.not25 = icmp eq i32 %4, 0
  %47 = load i64, ptr %9, align 4
  %48 = xor i64 %47, -68719476736
  %49 = select i1 %.not25, i64 %47, i64 %48
  %50 = and i64 %46, 4503530907893760
  %51 = and i64 %50, %49
  %52 = and i64 %43, 68719476735
  %53 = or disjoint i64 %51, %52
  store i64 %53, ptr %14, align 4
  ret void
}